target datalayout = "e-m:e-p270:32:32-p271:32:32-p272:64:64-i64:64-i128:128-f80:128-n8:16:32:64-S128"
target triple = "x86_64-pc-linux-gnu"

@.str.46 = private unnamed_addr constant [32 x i8] c"ICC profile tag outside profile\00", align 1
@.str.47 = private unnamed_addr constant [42 x i8] c"ICC profile tag start not a multiple of 4\00", align 1

; Function Attrs: nounwind uwtable
define i32 @png_icc_check_tag_table(ptr noalias noundef %0, ptr noalias noundef %1, ptr noundef %2, i32 noundef %3, ptr noundef %4) #0 {
  %6 = alloca i32, align 4
  %7 = alloca ptr, align 8
  %8 = alloca ptr, align 8
  %9 = alloca ptr, align 8
  %10 = alloca i32, align 4
  %11 = alloca ptr, align 8
  %12 = alloca i32, align 4
  %13 = alloca i32, align 4
  %14 = alloca ptr, align 8
  %15 = alloca i32, align 4
  %16 = alloca i32, align 4
  %17 = alloca i32, align 4
  store ptr %0, ptr %7, align 8
  store ptr %1, ptr %8, align 8
  store ptr %2, ptr %9, align 8
  store i32 %3, ptr %10, align 4
  store ptr %4, ptr %11, align 8
  %18 = load ptr, ptr %11, align 8
  %19 = getelementptr inbounds i8, ptr %18, i64 128
  %20 = load i8, ptr %19, align 1
  %21 = zext i8 %20 to i32
  %22 = shl i32 %21, 24
  %23 = load ptr, ptr %11, align 8
  %24 = getelementptr inbounds i8, ptr %23, i64 128
  %25 = getelementptr inbounds i8, ptr %24, i64 1
  %26 = load i8, ptr %25, align 1
  %27 = zext i8 %26 to i32
  %28 = shl i32 %27, 16
  %29 = add i32 %22, %28
  %30 = load ptr, ptr %11, align 8
  %31 = getelementptr inbounds i8, ptr %30, i64 128
  %32 = getelementptr inbounds i8, ptr %31, i64 2
  %33 = load i8, ptr %32, align 1
  %34 = zext i8 %33 to i32
  %35 = shl i32 %34, 8
  %36 = add i32 %29, %35
  %37 = load ptr, ptr %11, align 8
  %38 = getelementptr inbounds i8, ptr %37, i64 128
  %39 = getelementptr inbounds i8, ptr %38, i64 3
  %40 = load i8, ptr %39, align 1
  %41 = zext i8 %40 to i32
  %42 = add i32 %36, %41
  store i32 %42, ptr %12, align 4
  %43 = load ptr, ptr %11, align 8
  %44 = getelementptr inbounds i8, ptr %43, i64 132
  store ptr %44, ptr %14, align 8
  store i32 0, ptr %13, align 4
  br label %45

45:                                               ; preds = %152, %5
  %46 = load i32, ptr %13, align 4
  %47 = load i32, ptr %12, align 4
  %48 = icmp ult i32 %46, %47
  br i1 %48, label %49, label %157

49:                                               ; preds = %45
  %50 = load ptr, ptr %14, align 8
  %51 = getelementptr inbounds i8, ptr %50, i64 0
  %52 = load i8, ptr %51, align 1
  %53 = zext i8 %52 to i32
  %54 = shl i32 %53, 24
  %55 = load ptr, ptr %14, align 8
  %56 = getelementptr inbounds i8, ptr %55, i64 0
  %57 = getelementptr inbounds i8, ptr %56, i64 1
  %58 = load i8, ptr %57, align 1
  %59 = zext i8 %58 to i32
  %60 = shl i32 %59, 16
  %61 = add i32 %54, %60
  %62 = load ptr, ptr %14, align 8
  %63 = getelementptr inbounds i8, ptr %62, i64 0
  %64 = getelementptr inbounds i8, ptr %63, i64 2
  %65 = load i8, ptr %64, align 1
  %66 = zext i8 %65 to i32
  %67 = shl i32 %66, 8
  %68 = add i32 %61, %67
  %69 = load ptr, ptr %14, align 8
  %70 = getelementptr inbounds i8, ptr %69, i64 0
  %71 = getelementptr inbounds i8, ptr %70, i64 3
  %72 = load i8, ptr %71, align 1
  %73 = zext i8 %72 to i32
  %74 = add i32 %68, %73
  store i32 %74, ptr %15, align 4
  %75 = load ptr, ptr %14, align 8
  %76 = getelementptr inbounds i8, ptr %75, i64 4
  %77 = load i8, ptr %76, align 1
  %78 = zext i8 %77 to i32
  %79 = shl i32 %78, 24
  %80 = load ptr, ptr %14, align 8
  %81 = getelementptr inbounds i8, ptr %80, i64 4
  %82 = getelementptr inbounds i8, ptr %81, i64 1
  %83 = load i8, ptr %82, align 1
  %84 = zext i8 %83 to i32
  %85 = shl i32 %84, 16
  %86 = add i32 %79, %85
  %87 = load ptr, ptr %14, align 8
  %88 = getelementptr inbounds i8, ptr %87, i64 4
  %89 = getelementptr inbounds i8, ptr %88, i64 2
  %90 = load i8, ptr %89, align 1
  %91 = zext i8 %90 to i32
  %92 = shl i32 %91, 8
  %93 = add i32 %86, %92
  %94 = load ptr, ptr %14, align 8
  %95 = getelementptr inbounds i8, ptr %94, i64 4
  %96 = getelementptr inbounds i8, ptr %95, i64 3
  %97 = load i8, ptr %96, align 1
  %98 = zext i8 %97 to i32
  %99 = add i32 %93, %98
  store i32 %99, ptr %16, align 4
  %100 = load ptr, ptr %14, align 8
  %101 = getelementptr inbounds i8, ptr %100, i64 8
  %102 = load i8, ptr %101, align 1
  %103 = zext i8 %102 to i32
  %104 = shl i32 %103, 24
  %105 = load ptr, ptr %14, align 8
  %106 = getelementptr inbounds i8, ptr %105, i64 8
  %107 = getelementptr inbounds i8, ptr %106, i64 1
  %108 = load i8, ptr %107, align 1
  %109 = zext i8 %108 to i32
  %110 = shl i32 %109, 16
  %111 = add i32 %104, %110
  %112 = load ptr, ptr %14, align 8
  %113 = getelementptr inbounds i8, ptr %112, i64 8
  %114 = getelementptr inbounds i8, ptr %113, i64 2
  %115 = load i8, ptr %114, align 1
  %116 = zext i8 %115 to i32
  %117 = shl i32 %116, 8
  %118 = add i32 %111, %117
  %119 = load ptr, ptr %14, align 8
  %120 = getelementptr inbounds i8, ptr %119, i64 8
  %121 = getelementptr inbounds i8, ptr %120, i64 3
  %122 = load i8, ptr %121, align 1
  %123 = zext i8 %122 to i32
  %124 = add i32 %118, %123
  store i32 %124, ptr %17, align 4
  %125 = load i32, ptr %16, align 4
  %126 = load i32, ptr %10, align 4
  %127 = icmp ugt i32 %125, %126
  br i1 %127, label %134, label %128

128:                                              ; preds = %49
  %129 = load i32, ptr %17, align 4
  %130 = load i32, ptr %10, align 4
  %131 = load i32, ptr %16, align 4
  %132 = sub i32 %130, %131
  %133 = icmp ugt i32 %129, %132
  br i1 %133, label %134, label %141

134:                                              ; preds = %128, %49
  %135 = load ptr, ptr %7, align 8
  %136 = load ptr, ptr %8, align 8
  %137 = load ptr, ptr %9, align 8
  %138 = load i32, ptr %15, align 4
  %139 = zext i32 %138 to i64
  %140 = call i32 @png_icc_profile_error(ptr noundef %135, ptr noundef %136, ptr noundef %137, i64 noundef %139, ptr noundef @.str.46)
  store i32 %140, ptr %6, align 4
  br label %158

141:                                              ; preds = %128
  %142 = load i32, ptr %16, align 4
  %143 = and i32 %142, 3
  %144 = icmp ne i32 %143, 0
  br i1 %144, label %145, label %151

145:                                              ; preds = %141
  %146 = load ptr, ptr %7, align 8
  %147 = load ptr, ptr %9, align 8
  %148 = load i32, ptr %15, align 4
  %149 = zext i32 %148 to i64
  %150 = call i32 @png_icc_profile_error(ptr noundef %146, ptr noundef null, ptr noundef %147, i64 noundef %149, ptr noundef @.str.47)
  br label %151

151:                                              ; preds = %145, %141
  br label %152

152:                                              ; preds = %151
  %153 = load i32, ptr %13, align 4
  %154 = add i32 %153, 1
  store i32 %154, ptr %13, align 4
  %155 = load ptr, ptr %14, align 8
  %156 = getelementptr inbounds i8, ptr %155, i64 12
  store ptr %156, ptr %14, align 8
  br label %45, !llvm.loop !14

157:                                              ; preds = %45
  store i32 1, ptr %6, align 4
  br label %158

158:                                              ; preds = %157, %134
  %159 = load i32, ptr %6, align 4
  ret i32 %159
}