; Function Attrs: nounwind uwtable
define range(i32 0, 2) i32 @png_icc_check_tag_table(ptr noalias noundef %0, ptr noalias noundef %1, ptr noundef %2, i32 noundef %3, ptr nocapture noundef readonly %4) local_unnamed_addr #0 {
  %6 = getelementptr inbounds i8, ptr %4, i64 128
  %7 = load i8, ptr %6, align 1
  %8 = zext i8 %7 to i32
  %9 = shl nuw i32 %8, 24
  %10 = getelementptr inbounds i8, ptr %4, i64 129
  %11 = load i8, ptr %10, align 1
  %12 = zext i8 %11 to i32
  %13 = shl nuw nsw i32 %12, 16
  %14 = or disjoint i32 %13, %9
  %15 = getelementptr inbounds i8, ptr %4, i64 130
  %16 = load i8, ptr %15, align 1
  %17 = zext i8 %16 to i32
  %18 = shl nuw nsw i32 %17, 8
  %19 = or disjoint i32 %14, %18
  %20 = getelementptr inbounds i8, ptr %4, i64 131
  %21 = load i8, ptr %20, align 1
  %22 = zext i8 %21 to i32
  %23 = or disjoint i32 %19, %22
  %.not40 = icmp eq i32 %23, 0
  br i1 %.not40, label %.loopexit, label %.lr.ph.preheader

.lr.ph.preheader:                                 ; preds = %5
  %24 = getelementptr inbounds i8, ptr %4, i64 132
  br label %.lr.ph

.lr.ph:                                           ; preds = %.lr.ph.preheader, %88
  %.03439 = phi i32 [ %89, %88 ], [ 0, %.lr.ph.preheader ]
  %.03538 = phi ptr [ %90, %88 ], [ %24, %.lr.ph.preheader ]
  %25 = load i8, ptr %.03538, align 1
  %26 = zext i8 %25 to i32
  %27 = shl nuw i32 %26, 24
  %28 = getelementptr inbounds i8, ptr %.03538, i64 1
  %29 = load i8, ptr %28, align 1
  %30 = zext i8 %29 to i32
  %31 = shl nuw nsw i32 %30, 16
  %32 = or disjoint i32 %31, %27
  %33 = getelementptr inbounds i8, ptr %.03538, i64 2
  %34 = load i8, ptr %33, align 1
  %35 = zext i8 %34 to i32
  %36 = shl nuw nsw i32 %35, 8
  %37 = or disjoint i32 %32, %36
  %38 = getelementptr inbounds i8, ptr %.03538, i64 3
  %39 = load i8, ptr %38, align 1
  %40 = zext i8 %39 to i32
  %41 = or disjoint i32 %37, %40
  %42 = getelementptr inbounds i8, ptr %.03538, i64 4
  %43 = load i8, ptr %42, align 1
  %44 = zext i8 %43 to i32
  %45 = shl nuw i32 %44, 24
  %46 = getelementptr inbounds i8, ptr %.03538, i64 5
  %47 = load i8, ptr %46, align 1
  %48 = zext i8 %47 to i32
  %49 = shl nuw nsw i32 %48, 16
  %50 = or disjoint i32 %49, %45
  %51 = getelementptr inbounds i8, ptr %.03538, i64 6
  %52 = load i8, ptr %51, align 1
  %53 = zext i8 %52 to i32
  %54 = shl nuw nsw i32 %53, 8
  %55 = or disjoint i32 %50, %54
  %56 = getelementptr inbounds i8, ptr %.03538, i64 7
  %57 = load i8, ptr %56, align 1
  %58 = zext i8 %57 to i32
  %59 = or disjoint i32 %55, %58
  %60 = icmp ugt i32 %59, %3
  br i1 %60, label %82, label %61

61:                                               ; preds = %.lr.ph
  %62 = getelementptr inbounds i8, ptr %.03538, i64 8
  %63 = load i8, ptr %62, align 1
  %64 = zext i8 %63 to i32
  %65 = shl nuw i32 %64, 24
  %66 = getelementptr inbounds i8, ptr %.03538, i64 9
  %67 = load i8, ptr %66, align 1
  %68 = zext i8 %67 to i32
  %69 = shl nuw nsw i32 %68, 16
  %70 = or disjoint i32 %69, %65
  %71 = getelementptr inbounds i8, ptr %.03538, i64 10
  %72 = load i8, ptr %71, align 1
  %73 = zext i8 %72 to i32
  %74 = shl nuw nsw i32 %73, 8
  %75 = or disjoint i32 %70, %74
  %76 = getelementptr inbounds i8, ptr %.03538, i64 11
  %77 = load i8, ptr %76, align 1
  %78 = zext i8 %77 to i32
  %79 = or disjoint i32 %75, %78
  %80 = sub i32 %3, %59
  %81 = icmp ugt i32 %79, %80
  br i1 %81, label %82, label %84

82:                                               ; preds = %61, %.lr.ph
  %83 = zext i32 %41 to i64
  tail call fastcc void @png_icc_profile_error(ptr noundef %0, ptr noundef %1, ptr noundef %2, i64 noundef %83, ptr noundef nonnull @.str.46)
  br label %.loopexit

84:                                               ; preds = %61
  %85 = and i32 %58, 3
  %.not = icmp eq i32 %85, 0
  br i1 %.not, label %88, label %86

86:                                               ; preds = %84
  %87 = zext i32 %41 to i64
  tail call fastcc void @png_icc_profile_error(ptr noundef %0, ptr noundef null, ptr noundef %2, i64 noundef %87, ptr noundef nonnull @.str.47)
  br label %88

88:                                               ; preds = %84, %86
  %89 = add nuw i32 %.03439, 1
  %90 = getelementptr inbounds i8, ptr %.03538, i64 12
  %exitcond.not = icmp eq i32 %89, %23
  br i1 %exitcond.not, label %.loopexit, label %.lr.ph, !llvm.loop !54

.loopexit:                                        ; preds = %88, %5, %82
  %.0 = phi i32 [ 0, %82 ], [ 1, %5 ], [ 1, %88 ]
  ret i32 %.0
}